; ModuleID = '13/1456.c'
source_filename = "13/1456.c"
target datalayout = "e-m:e-p270:32:32-p271:32:32-p272:64:64-i64:64-f80:128-n8:16:32:64-S128"
target triple = "x86_64-pc-linux-gnu"

@.str = private unnamed_addr constant [3 x i8] c"%d\00", align 1
@.str.1 = private unnamed_addr constant [4 x i8] c" %d\00", align 1

; Function Attrs: noinline nounwind uwtable
define dso_local i32 @main() #0 {
  %1 = alloca i32, align 4
  %2 = alloca i32, align 4
  %3 = alloca [20000 x i32], align 16
  %4 = alloca i32, align 4
  %5 = alloca i32, align 4
  %6 = alloca i32, align 4
  %7 = alloca i32, align 4
  store i32 0, i32* %1, align 4
  store i32 1, i32* %7, align 4
  %8 = call i32 (i8*, ...) @__isoc99_scanf(i8* getelementptr inbounds ([3 x i8], [3 x i8]* @.str, i64 0, i64 0), i32* %2)
  store i32 0, i32* %4, align 4
  br label %9

9:                                                ; preds = %18, %0
  %10 = load i32, i32* %4, align 4
  %11 = load i32, i32* %2, align 4
  %12 = icmp slt i32 %10, %11
  br i1 %12, label %13, label %21

13:                                               ; preds = %9
  %14 = load i32, i32* %4, align 4
  %15 = sext i32 %14 to i64
  %16 = getelementptr inbounds [20000 x i32], [20000 x i32]* %3, i64 0, i64 %15
  %17 = call i32 (i8*, ...) @__isoc99_scanf(i8* getelementptr inbounds ([3 x i8], [3 x i8]* @.str, i64 0, i64 0), i32* %16)
  br label %18

18:                                               ; preds = %13
  %19 = load i32, i32* %4, align 4
  %20 = add nsw i32 %19, 1
  store i32 %20, i32* %4, align 4
  br label %9

21:                                               ; preds = %9
  %22 = load i32, i32* %2, align 4
  %23 = icmp eq i32 %22, 1
  br i1 %23, label %24, label %28

24:                                               ; preds = %21
  %25 = getelementptr inbounds [20000 x i32], [20000 x i32]* %3, i64 0, i64 0
  %26 = load i32, i32* %25, align 16
  %27 = call i32 (i8*, ...) @printf(i8* getelementptr inbounds ([3 x i8], [3 x i8]* @.str, i64 0, i64 0), i32 %26)
  store i32 0, i32* %1, align 4
  br label %109

28:                                               ; preds = %21
  %29 = getelementptr inbounds [20000 x i32], [20000 x i32]* %3, i64 0, i64 0
  %30 = load i32, i32* %29, align 16
  %31 = call i32 (i8*, ...) @printf(i8* getelementptr inbounds ([3 x i8], [3 x i8]* @.str, i64 0, i64 0), i32 %30)
  %32 = load i32, i32* %2, align 4
  store i32 %32, i32* %6, align 4
  store i32 0, i32* %4, align 4
  br label %33

33:                                               ; preds = %60, %28
  %34 = load i32, i32* %4, align 4
  %35 = load i32, i32* %2, align 4
  %36 = icmp slt i32 %34, %35
  br i1 %36, label %37, label %63

37:                                               ; preds = %33
  store i32 0, i32* %5, align 4
  br label %38

38:                                               ; preds = %56, %37
  %39 = load i32, i32* %5, align 4
  %40 = load i32, i32* %4, align 4
  %41 = icmp slt i32 %39, %40
  br i1 %41, label %42, label %59

42:                                               ; preds = %38
  %43 = load i32, i32* %4, align 4
  %44 = sext i32 %43 to i64
  %45 = getelementptr inbounds [20000 x i32], [20000 x i32]* %3, i64 0, i64 %44
  %46 = load i32, i32* %45, align 4
  %47 = load i32, i32* %5, align 4
  %48 = sext i32 %47 to i64
  %49 = getelementptr inbounds [20000 x i32], [20000 x i32]* %3, i64 0, i64 %48
  %50 = load i32, i32* %49, align 4
  %51 = icmp eq i32 %46, %50
  br i1 %51, label %52, label %55

52:                                               ; preds = %42
  %53 = load i32, i32* %6, align 4
  %54 = sub nsw i32 %53, 1
  store i32 %54, i32* %6, align 4
  br label %59

55:                                               ; preds = %42
  br label %56

56:                                               ; preds = %55
  %57 = load i32, i32* %5, align 4
  %58 = add nsw i32 %57, 1
  store i32 %58, i32* %5, align 4
  br label %38

59:                                               ; preds = %52, %38
  br label %60

60:                                               ; preds = %59
  %61 = load i32, i32* %4, align 4
  %62 = add nsw i32 %61, 1
  store i32 %62, i32* %4, align 4
  br label %33

63:                                               ; preds = %33
  store i32 0, i32* %4, align 4
  br label %64

64:                                               ; preds = %105, %63
  %65 = load i32, i32* %4, align 4
  %66 = load i32, i32* %2, align 4
  %67 = icmp slt i32 %65, %66
  br i1 %67, label %68, label %108

68:                                               ; preds = %64
  store i32 0, i32* %5, align 4
  br label %69

69:                                               ; preds = %101, %68
  %70 = load i32, i32* %5, align 4
  %71 = load i32, i32* %4, align 4
  %72 = icmp slt i32 %70, %71
  br i1 %72, label %73, label %104

73:                                               ; preds = %69
  %74 = load i32, i32* %4, align 4
  %75 = sext i32 %74 to i64
  %76 = getelementptr inbounds [20000 x i32], [20000 x i32]* %3, i64 0, i64 %75
  %77 = load i32, i32* %76, align 4
  %78 = load i32, i32* %5, align 4
  %79 = sext i32 %78 to i64
  %80 = getelementptr inbounds [20000 x i32], [20000 x i32]* %3, i64 0, i64 %79
  %81 = load i32, i32* %80, align 4
  %82 = icmp eq i32 %77, %81
  br i1 %82, label %83, label %84

83:                                               ; preds = %73
  br label %104

84:                                               ; preds = %73
  %85 = load i32, i32* %5, align 4
  %86 = load i32, i32* %4, align 4
  %87 = sub nsw i32 %86, 1
  %88 = icmp eq i32 %85, %87
  br i1 %88, label %89, label %99

89:                                               ; preds = %84
  %90 = load i32, i32* %7, align 4
  %91 = load i32, i32* %6, align 4
  %92 = icmp slt i32 %90, %91
  br i1 %92, label %93, label %99

93:                                               ; preds = %89
  %94 = load i32, i32* %4, align 4
  %95 = sext i32 %94 to i64
  %96 = getelementptr inbounds [20000 x i32], [20000 x i32]* %3, i64 0, i64 %95
  %97 = load i32, i32* %96, align 4
  %98 = call i32 (i8*, ...) @printf(i8* getelementptr inbounds ([4 x i8], [4 x i8]* @.str.1, i64 0, i64 0), i32 %97)
  br label %99

99:                                               ; preds = %93, %89, %84
  br label %100

100:                                              ; preds = %99
  br label %101

101:                                              ; preds = %100
  %102 = load i32, i32* %5, align 4
  %103 = add nsw i32 %102, 1
  store i32 %103, i32* %5, align 4
  br label %69

104:                                              ; preds = %83, %69
  br label %105

105:                                              ; preds = %104
  %106 = load i32, i32* %4, align 4
  %107 = add nsw i32 %106, 1
  store i32 %107, i32* %4, align 4
  br label %64

108:                                              ; preds = %64
  store i32 0, i32* %1, align 4
  br label %109

109:                                              ; preds = %108, %24
  %110 = load i32, i32* %1, align 4
  ret i32 %110
}

declare dso_local i32 @__isoc99_scanf(i8*, ...) #1

declare dso_local i32 @printf(i8*, ...) #1


!llvm.module.flags = !{!0}
!llvm.ident = !{!1}

!0 = !{i32 1, !"wchar_size", i32 4}
!1 = !{!"clang version 10.0.0-4ubuntu1 "}
